target datalayout = "e-m:e-p270:32:32-p271:32:32-p272:64:64-i64:64-i128:128-f80:128-n8:16:32:64-S128"
target triple = "x86_64-pc-linux-gnu"

%"class.std::__cxx11::basic_string" = type { %"struct.std::__cxx11::basic_string<char>::_Alloc_hider", i64, %union.anon }
%"struct.std::__cxx11::basic_string<char>::_Alloc_hider" = type { ptr }
%union.anon = type { i64, [8 x i8] }
%"class.std::basic_ostream" = type { ptr, %"class.std::basic_ios" }
%"class.std::basic_ios" = type { %"class.std::ios_base", ptr, i8, i8, ptr, ptr, ptr, ptr }
%"class.std::ios_base" = type { ptr, i64, i64, i32, i32, i32, ptr, %"struct.std::ios_base::_Words", [8 x %"struct.std::ios_base::_Words"], i32, ptr, %"class.std::locale" }
%"struct.std::ios_base::_Words" = type { ptr, i64 }
%"class.std::locale" = type { ptr }
%"class.std::basic_istream.base" = type { ptr, i64 }
%"class.std::basic_streambuf" = type { ptr, ptr, ptr, ptr, ptr, ptr, ptr, %"class.std::locale" }
%"class.std::__shared_count" = type { ptr }
%class.cmUVProcessChainBuilder = type { %"struct.std::array.511", %"class.std::vector.512", %"class.std::__cxx11::basic_string", i8, ptr }
%"struct.std::array.511" = type { [3 x %"struct.cmUVProcessChainBuilder::StdioConfiguration"] }
%"struct.cmUVProcessChainBuilder::StdioConfiguration" = type { i32, i32 }
%"class.std::vector.512" = type { %"struct.std::_Vector_base.513" }
%"struct.std::_Vector_base.513" = type { %"struct.std::_Vector_base<cmUVProcessChainBuilder::ProcessConfiguration, std::allocator<cmUVProcessChainBuilder::ProcessConfiguration>>::_Vector_impl" }
%"struct.std::_Vector_base<cmUVProcessChainBuilder::ProcessConfiguration, std::allocator<cmUVProcessChainBuilder::ProcessConfiguration>>::_Vector_impl" = type { %"struct.std::_Vector_base<cmUVProcessChainBuilder::ProcessConfiguration, std::allocator<cmUVProcessChainBuilder::ProcessConfiguration>>::_Vector_impl_data" }
%"struct.std::_Vector_base<cmUVProcessChainBuilder::ProcessConfiguration, std::allocator<cmUVProcessChainBuilder::ProcessConfiguration>>::_Vector_impl_data" = type { ptr, ptr, ptr }
%"struct.cmUVProcessChain::Status" = type { i32, i8, i64, i32 }
%class.cmUVProcessChain = type { %"class.std::unique_ptr.517" }
%"class.std::unique_ptr.517" = type { %"struct.std::__uniq_ptr_data.518" }
%"struct.std::__uniq_ptr_data.518" = type { %"class.std::__uniq_ptr_impl.519" }
%"class.std::__uniq_ptr_impl.519" = type { %"class.std::tuple.520" }
%"class.std::tuple.520" = type { %"struct.std::_Tuple_impl.521" }
%"struct.std::_Tuple_impl.521" = type { %"struct.std::_Head_base.524" }
%"struct.std::_Head_base.524" = type { ptr }
%class.cmBasicUVPipeIStream = type { %class.cmBasicUVIStream.base, %"struct.cm::uv_pipe_ptr", %"class.std::basic_ios" }
%class.cmBasicUVIStream.base = type { %"class.std::basic_istream.base", %class.cmBasicUVStreambuf }
%class.cmBasicUVStreambuf = type <{ %"class.std::basic_streambuf", ptr, ptr, i64, %"class.std::vector.525", i8, [7 x i8] }>
%"class.std::vector.525" = type { %"struct.std::_Vector_base.526" }
%"struct.std::_Vector_base.526" = type { %"struct.std::_Vector_base<char, std::allocator<char>>::_Vector_impl" }
%"struct.std::_Vector_base<char, std::allocator<char>>::_Vector_impl" = type { %"struct.std::_Vector_base<char, std::allocator<char>>::_Vector_impl_data" }
%"struct.std::_Vector_base<char, std::allocator<char>>::_Vector_impl_data" = type { ptr, ptr, ptr }
%"struct.cm::uv_pipe_ptr" = type { %"class.cm::uv_handle_ptr_" }
%"class.cm::uv_handle_ptr_" = type { %"class.cm::uv_handle_ptr_base_" }
%"class.cm::uv_handle_ptr_base_" = type { %"class.std::shared_ptr.527" }
%"class.std::shared_ptr.527" = type { %"class.std::__shared_ptr.528" }
%"class.std::__shared_ptr.528" = type { ptr, %"class.std::__shared_count" }
%struct.uv_fs_s = type { ptr, i32, [6 x ptr], i32, ptr, ptr, i64, ptr, ptr, %struct.uv_stat_t, ptr, i32, i32, i32, i32, ptr, i64, i32, i32, double, double, %struct.uv__work, [4 x %struct.uv_buf_t] }
%struct.uv_stat_t = type { i64, i64, i64, i64, i64, i64, i64, i64, i64, i64, i64, i64, %struct.uv_timespec_t, %struct.uv_timespec_t, %struct.uv_timespec_t, %struct.uv_timespec_t }
%struct.uv_timespec_t = type { i64, i64 }
%struct.uv__work = type { ptr, ptr, ptr, [2 x ptr] }
%struct.uv_buf_t = type { ptr, i64 }

@_ZSt4cerr = external global %"class.std::basic_ostream", align 8
@.str.179 = private unnamed_addr constant [30 x i8] c"Failed to start preprocessor.\00", align 1
@.str.180 = private unnamed_addr constant [32 x i8] c"Failed to wait for preprocessor\00", align 1

; Function Attrs: mustprogress uwtable
define dso_local noundef i32 @_ZN5cmcmd15RunPreprocessorERKSt6vectorINSt7__cxx1112basic_stringIcSt11char_traitsIcESaIcEEESaIS6_EERKS6_(ptr noundef nonnull align 8 dereferenceable(24) %0, ptr noundef nonnull align 8 dereferenceable(32) %1) #4 align 2 personality ptr @__gxx_personality_v0 {
  %3 = alloca i32, align 4
  %4 = alloca ptr, align 8
  %5 = alloca ptr, align 8
  %6 = alloca %class.cmUVProcessChainBuilder, align 8
  %7 = alloca %struct.uv_fs_s, align 8
  %8 = alloca i32, align 4
  %9 = alloca ptr, align 8
  %10 = alloca i32, align 4
  %11 = alloca %class.cmUVProcessChain, align 8
  %12 = alloca i32, align 4
  %13 = alloca %class.cmBasicUVPipeIStream, align 8
  store ptr %0, ptr %4, align 8
  store ptr %1, ptr %5, align 8
  call void @_ZN23cmUVProcessChainBuilderC1Ev(ptr noundef nonnull align 8 dereferenceable(96) %6)
  %14 = load ptr, ptr %5, align 8
  %15 = call noundef ptr @_ZNKSt7__cxx1112basic_stringIcSt11char_traitsIcESaIcEE5c_strEv(ptr noundef nonnull align 8 dereferenceable(32) %14) #3
  %16 = invoke i32 @uv_fs_open(ptr noundef null, ptr noundef %7, ptr noundef %15, i32 noundef 66, i32 noundef 420, ptr noundef null)
          to label %17 unwind label %39

17:                                               ; preds = %2
  store i32 %16, ptr %8, align 4
  invoke void @uv_fs_req_cleanup(ptr noundef %7)
          to label %18 unwind label %39

18:                                               ; preds = %17
  %19 = load i32, ptr %8, align 4
  %20 = invoke noundef nonnull align 8 dereferenceable(96) ptr @_ZN23cmUVProcessChainBuilder17SetExternalStreamENS_6StreamEi(ptr noundef nonnull align 8 dereferenceable(96) %6, i32 noundef 1, i32 noundef %19)
          to label %21 unwind label %39

21:                                               ; preds = %18
  %22 = invoke noundef nonnull align 8 dereferenceable(96) ptr @_ZN23cmUVProcessChainBuilder16SetBuiltinStreamENS_6StreamE(ptr noundef nonnull align 8 dereferenceable(96) %20, i32 noundef 2)
          to label %23 unwind label %39

23:                                               ; preds = %21
  %24 = load ptr, ptr %4, align 8
  %25 = invoke noundef nonnull align 8 dereferenceable(96) ptr @_ZN23cmUVProcessChainBuilder10AddCommandERKSt6vectorINSt7__cxx1112basic_stringIcSt11char_traitsIcESaIcEEESaIS6_EE(ptr noundef nonnull align 8 dereferenceable(96) %22, ptr noundef nonnull align 8 dereferenceable(24) %24)
          to label %26 unwind label %39

26:                                               ; preds = %23
  invoke void @_ZNK23cmUVProcessChainBuilder5StartEv(ptr dead_on_unwind writable sret(%class.cmUVProcessChain) align 8 %11, ptr noundef nonnull align 8 dereferenceable(96) %6)
          to label %27 unwind label %39

27:                                               ; preds = %26
  %28 = invoke noundef zeroext i1 @_ZNK16cmUVProcessChain5ValidEv(ptr noundef nonnull align 8 dereferenceable(8) %11)
          to label %29 unwind label %43

29:                                               ; preds = %27
  br i1 %28, label %30, label %36

30:                                               ; preds = %29
  %31 = invoke noundef nonnull align 8 dereferenceable(24) ptr @_ZNK16cmUVProcessChain9GetStatusEm(ptr noundef nonnull align 8 dereferenceable(8) %11, i64 noundef 0)
          to label %32 unwind label %43

32:                                               ; preds = %30
  %33 = getelementptr inbounds %"struct.cmUVProcessChain::Status", ptr %31, i32 0, i32 0
  %34 = load i32, ptr %33, align 8
  %35 = icmp ne i32 %34, 0
  br i1 %35, label %36, label %47

36:                                               ; preds = %32, %29
  %37 = invoke noundef nonnull align 8 dereferenceable(8) ptr @_ZStlsISt11char_traitsIcEERSt13basic_ostreamIcT_ES5_PKc(ptr noundef nonnull align 8 dereferenceable(8) @_ZSt4cerr, ptr noundef @.str.179)
          to label %38 unwind label %43

38:                                               ; preds = %36
  store i32 1, ptr %3, align 4
  store i32 1, ptr %12, align 4
  br label %78

39:                                               ; preds = %26, %23, %21, %18, %17, %2
  %40 = landingpad { ptr, i32 }
          cleanup
  %41 = extractvalue { ptr, i32 } %40, 0
  store ptr %41, ptr %9, align 8
  %42 = extractvalue { ptr, i32 } %40, 1
  store i32 %42, ptr %10, align 4
  br label %81

43:                                               ; preds = %63, %61, %59, %53, %50, %47, %36, %30, %27
  %44 = landingpad { ptr, i32 }
          cleanup
  %45 = extractvalue { ptr, i32 } %44, 0
  store ptr %45, ptr %9, align 8
  %46 = extractvalue { ptr, i32 } %44, 1
  store i32 %46, ptr %10, align 4
  br label %80

47:                                               ; preds = %32
  %48 = invoke noundef zeroext i1 @_ZN16cmUVProcessChain4WaitEm(ptr noundef nonnull align 8 dereferenceable(8) %11, i64 noundef 0)
          to label %49 unwind label %43

49:                                               ; preds = %47
  br i1 %48, label %53, label %50

50:                                               ; preds = %49
  %51 = invoke noundef nonnull align 8 dereferenceable(8) ptr @_ZStlsISt11char_traitsIcEERSt13basic_ostreamIcT_ES5_PKc(ptr noundef nonnull align 8 dereferenceable(8) @_ZSt4cerr, ptr noundef @.str.180)
          to label %52 unwind label %43

52:                                               ; preds = %50
  store i32 1, ptr %3, align 4
  store i32 1, ptr %12, align 4
  br label %78

53:                                               ; preds = %49
  %54 = invoke noundef nonnull align 8 dereferenceable(24) ptr @_ZNK16cmUVProcessChain9GetStatusEm(ptr noundef nonnull align 8 dereferenceable(8) %11, i64 noundef 0)
          to label %55 unwind label %43

55:                                               ; preds = %53
  %56 = getelementptr inbounds %"struct.cmUVProcessChain::Status", ptr %54, i32 0, i32 2
  %57 = load i64, ptr %56, align 8
  %58 = icmp ne i64 %57, 0
  br i1 %58, label %59, label %77

59:                                               ; preds = %55
  %60 = invoke noundef nonnull align 8 dereferenceable(848) ptr @_ZN16cmUVProcessChain7GetLoopEv(ptr noundef nonnull align 8 dereferenceable(8) %11)
          to label %61 unwind label %43

61:                                               ; preds = %59
  %62 = invoke noundef i32 @_ZN16cmUVProcessChain11ErrorStreamEv(ptr noundef nonnull align 8 dereferenceable(8) %11)
          to label %63 unwind label %43

63:                                               ; preds = %61
  invoke void @_ZN20cmBasicUVPipeIStreamIcSt11char_traitsIcEEC1ER9uv_loop_si(ptr noundef nonnull align 8 dereferenceable(152) %13, ptr noundef nonnull align 8 dereferenceable(848) %60, i32 noundef %62)
          to label %64 unwind label %43

64:                                               ; preds = %63
  %65 = load ptr, ptr %13, align 8
  %66 = getelementptr i8, ptr %65, i64 -24
  %67 = load i64, ptr %66, align 8
  %68 = getelementptr inbounds i8, ptr %13, i64 %67
  %69 = invoke noundef ptr @_ZNKSt9basic_iosIcSt11char_traitsIcEE5rdbufEv(ptr noundef nonnull align 8 dereferenceable(264) %68)
          to label %70 unwind label %73

70:                                               ; preds = %64
  %71 = invoke noundef nonnull align 8 dereferenceable(8) ptr @_ZNSolsEPSt15basic_streambufIcSt11char_traitsIcEE(ptr noundef nonnull align 8 dereferenceable(8) @_ZSt4cerr, ptr noundef %69)
          to label %72 unwind label %73

72:                                               ; preds = %70
  store i32 1, ptr %3, align 4
  store i32 1, ptr %12, align 4
  call void @_ZN20cmBasicUVPipeIStreamIcSt11char_traitsIcEED1Ev(ptr noundef nonnull align 8 dereferenceable(152) %13) #3
  br label %78

73:                                               ; preds = %70, %64
  %74 = landingpad { ptr, i32 }
          cleanup
  %75 = extractvalue { ptr, i32 } %74, 0
  store ptr %75, ptr %9, align 8
  %76 = extractvalue { ptr, i32 } %74, 1
  store i32 %76, ptr %10, align 4
  call void @_ZN20cmBasicUVPipeIStreamIcSt11char_traitsIcEED1Ev(ptr noundef nonnull align 8 dereferenceable(152) %13) #3
  br label %80

77:                                               ; preds = %55
  store i32 0, ptr %3, align 4
  store i32 1, ptr %12, align 4
  br label %78

78:                                               ; preds = %77, %72, %52, %38
  call void @_ZN16cmUVProcessChainD1Ev(ptr noundef nonnull align 8 dereferenceable(8) %11) #3
  call void @_ZN23cmUVProcessChainBuilderD2Ev(ptr noundef nonnull align 8 dereferenceable(96) %6) #3
  %79 = load i32, ptr %3, align 4
  ret i32 %79

80:                                               ; preds = %73, %43
  call void @_ZN16cmUVProcessChainD1Ev(ptr noundef nonnull align 8 dereferenceable(8) %11) #3
  br label %81

81:                                               ; preds = %80, %39
  call void @_ZN23cmUVProcessChainBuilderD2Ev(ptr noundef nonnull align 8 dereferenceable(96) %6) #3
  br label %82

82:                                               ; preds = %81
  %83 = load ptr, ptr %9, align 8
  %84 = load i32, ptr %10, align 4
  %85 = insertvalue { ptr, i32 } poison, ptr %83, 0
  %86 = insertvalue { ptr, i32 } %85, i32 %84, 1
  resume { ptr, i32 } %86
}