; Function Attrs: mustprogress uwtable
define dso_local noundef i32 @_ZN5cmcmd15RunPreprocessorERKSt6vectorINSt7__cxx1112basic_stringIcSt11char_traitsIcESaIcEEESaIS6_EERKS6_(ptr noundef nonnull align 8 dereferenceable(24) %0, ptr noundef nonnull align 8 dereferenceable(32) %1) local_unnamed_addr #3 align 2 personality ptr @__gxx_personality_v0 {
  %3 = alloca %class.cmUVProcessChainBuilder, align 8
  %4 = alloca %struct.uv_fs_s, align 8
  %5 = alloca %class.cmUVProcessChain, align 8
  %6 = alloca %class.cmBasicUVPipeIStream, align 8
  call void @_ZN23cmUVProcessChainBuilderC1Ev(ptr noundef nonnull align 8 dereferenceable(96) %3)
  %7 = call noundef ptr @_ZNKSt7__cxx1112basic_stringIcSt11char_traitsIcESaIcEE5c_strEv(ptr noundef nonnull align 8 dereferenceable(32) %1) #21
  %8 = invoke i32 @uv_fs_open(ptr noundef null, ptr noundef nonnull %4, ptr noundef %7, i32 noundef 66, i32 noundef 420, ptr noundef null)
          to label %9 unwind label %24

9:                                                ; preds = %2
  invoke void @uv_fs_req_cleanup(ptr noundef nonnull %4)
          to label %10 unwind label %24

10:                                               ; preds = %9
  %11 = invoke noundef nonnull align 8 dereferenceable(96) ptr @_ZN23cmUVProcessChainBuilder17SetExternalStreamENS_6StreamEi(ptr noundef nonnull align 8 dereferenceable(96) %3, i32 noundef 1, i32 noundef %8)
          to label %12 unwind label %24

12:                                               ; preds = %10
  %13 = invoke noundef nonnull align 8 dereferenceable(96) ptr @_ZN23cmUVProcessChainBuilder16SetBuiltinStreamENS_6StreamE(ptr noundef nonnull align 8 dereferenceable(96) %11, i32 noundef 2)
          to label %14 unwind label %24

14:                                               ; preds = %12
  %15 = invoke noundef nonnull align 8 dereferenceable(96) ptr @_ZN23cmUVProcessChainBuilder10AddCommandERKSt6vectorINSt7__cxx1112basic_stringIcSt11char_traitsIcESaIcEEESaIS6_EE(ptr noundef nonnull align 8 dereferenceable(96) %13, ptr noundef nonnull align 8 dereferenceable(24) %0)
          to label %16 unwind label %24

16:                                               ; preds = %14
  invoke void @_ZNK23cmUVProcessChainBuilder5StartEv(ptr dead_on_unwind nonnull writable sret(%class.cmUVProcessChain) align 8 %5, ptr noundef nonnull align 8 dereferenceable(96) %3)
          to label %17 unwind label %24

17:                                               ; preds = %16
  %18 = invoke noundef zeroext i1 @_ZNK16cmUVProcessChain5ValidEv(ptr noundef nonnull align 8 dereferenceable(8) %5)
          to label %19 unwind label %26

19:                                               ; preds = %17
  br i1 %18, label %20, label %.invoke

20:                                               ; preds = %19
  %21 = invoke noundef nonnull align 8 dereferenceable(24) ptr @_ZNK16cmUVProcessChain9GetStatusEm(ptr noundef nonnull align 8 dereferenceable(8) %5, i64 noundef 0)
          to label %22 unwind label %26

22:                                               ; preds = %20
  %23 = load i32, ptr %21, align 8
  %.not = icmp eq i32 %23, 0
  br i1 %.not, label %28, label %.invoke

24:                                               ; preds = %16, %14, %12, %10, %9, %2
  %25 = landingpad { ptr, i32 }
          cleanup
  br label %73

26:                                               ; preds = %.invoke, %42, %40, %38, %33, %28, %20, %17
  %27 = landingpad { ptr, i32 }
          cleanup
  br label %72

28:                                               ; preds = %22
  %29 = invoke noundef zeroext i1 @_ZN16cmUVProcessChain4WaitEm(ptr noundef nonnull align 8 dereferenceable(8) %5, i64 noundef 0)
          to label %30 unwind label %26

30:                                               ; preds = %28
  br i1 %29, label %33, label %.invoke

.invoke:                                          ; preds = %19, %22, %30
  %31 = phi ptr [ @.str.180, %30 ], [ @.str.179, %22 ], [ @.str.179, %19 ]
  %32 = invoke noundef nonnull align 8 dereferenceable(8) ptr @_ZStlsISt11char_traitsIcEERSt13basic_ostreamIcT_ES5_PKc(ptr noundef nonnull align 8 dereferenceable(8) @_ZSt4cerr, ptr noundef nonnull %31)
          to label %57 unwind label %26

33:                                               ; preds = %30
  %34 = invoke noundef nonnull align 8 dereferenceable(24) ptr @_ZNK16cmUVProcessChain9GetStatusEm(ptr noundef nonnull align 8 dereferenceable(8) %5, i64 noundef 0)
          to label %35 unwind label %26

35:                                               ; preds = %33
  %36 = getelementptr inbounds i8, ptr %34, i64 8
  %37 = load i64, ptr %36, align 8
  %.not8 = icmp eq i64 %37, 0
  br i1 %.not8, label %57, label %38

38:                                               ; preds = %35
  %39 = invoke noundef nonnull align 8 dereferenceable(848) ptr @_ZN16cmUVProcessChain7GetLoopEv(ptr noundef nonnull align 8 dereferenceable(8) %5)
          to label %40 unwind label %26

40:                                               ; preds = %38
  %41 = invoke noundef i32 @_ZN16cmUVProcessChain11ErrorStreamEv(ptr noundef nonnull align 8 dereferenceable(8) %5)
          to label %42 unwind label %26

42:                                               ; preds = %40
  invoke void @_ZN20cmBasicUVPipeIStreamIcSt11char_traitsIcEEC1ER9uv_loop_si(ptr noundef nonnull align 8 dereferenceable(152) %6, ptr noundef nonnull align 8 dereferenceable(848) %39, i32 noundef %41)
          to label %43 unwind label %26

43:                                               ; preds = %42
  %44 = load ptr, ptr %6, align 8
  %45 = getelementptr i8, ptr %44, i64 -24
  %46 = load i64, ptr %45, align 8
  %47 = getelementptr inbounds i8, ptr %6, i64 %46
  %48 = invoke noundef ptr @_ZNKSt9basic_iosIcSt11char_traitsIcEE5rdbufEv(ptr noundef nonnull align 8 dereferenceable(264) %47)
          to label %49 unwind label %55

49:                                               ; preds = %43
  %50 = invoke noundef nonnull align 8 dereferenceable(8) ptr @_ZNSolsEPSt15basic_streambufIcSt11char_traitsIcEE(ptr noundef nonnull align 8 dereferenceable(8) @_ZSt4cerr, ptr noundef %48)
          to label %51 unwind label %55

51:                                               ; preds = %49
  store ptr getelementptr inbounds ({ [5 x ptr], [5 x ptr] }, ptr @_ZTV20cmBasicUVPipeIStreamIcSt11char_traitsIcEE, i64 0, i32 0, i64 3), ptr %6, align 8
  %52 = getelementptr inbounds i8, ptr %6, i64 152
  store ptr getelementptr inbounds ({ [5 x ptr], [5 x ptr] }, ptr @_ZTV20cmBasicUVPipeIStreamIcSt11char_traitsIcEE, i64 0, i32 1, i64 3), ptr %52, align 8
  %53 = getelementptr inbounds i8, ptr %6, i64 136
  call void @_ZN2cm19uv_handle_ptr_base_I9uv_pipe_sED2Ev(ptr noundef nonnull align 8 dereferenceable(16) %53) #21
  store ptr getelementptr inbounds ({ [5 x ptr], [5 x ptr] }, ptr @_ZTC20cmBasicUVPipeIStreamIcSt11char_traitsIcEE0_16cmBasicUVIStreamIcS1_E, i64 0, i32 0, i64 3), ptr %6, align 8
  store ptr getelementptr inbounds ({ [5 x ptr], [5 x ptr] }, ptr @_ZTC20cmBasicUVPipeIStreamIcSt11char_traitsIcEE0_16cmBasicUVIStreamIcS1_E, i64 0, i32 1, i64 3), ptr %52, align 8
  %54 = getelementptr inbounds i8, ptr %6, i64 16
  call void @_ZN18cmBasicUVStreambufIcSt11char_traitsIcEED2Ev(ptr noundef nonnull align 8 dereferenceable(113) %54) #21
  call void @_ZNSiD2Ev(ptr noundef nonnull align 8 dereferenceable(16) %6, ptr noundef nonnull getelementptr inbounds ([6 x ptr], ptr @_ZTT20cmBasicUVPipeIStreamIcSt11char_traitsIcEE, i64 0, i64 2)) #21
  call void @_ZNSt9basic_iosIcSt11char_traitsIcEED2Ev(ptr noundef nonnull align 8 dereferenceable(264) %52) #21
  br label %57

55:                                               ; preds = %49, %43
  %56 = landingpad { ptr, i32 }
          cleanup
  call void @_ZN20cmBasicUVPipeIStreamIcSt11char_traitsIcEED1Ev(ptr noundef nonnull align 8 dereferenceable(152) %6) #21
  br label %72

57:                                               ; preds = %.invoke, %35, %51
  %.07 = phi i32 [ 1, %51 ], [ 0, %35 ], [ 1, %.invoke ]
  call void @_ZN16cmUVProcessChainD1Ev(ptr noundef nonnull align 8 dereferenceable(8) %5) #21
  %58 = getelementptr inbounds i8, ptr %3, i64 48
  call void @_ZNSt7__cxx1112basic_stringIcSt11char_traitsIcESaIcEED1Ev(ptr noundef nonnull align 8 dereferenceable(32) %58) #21
  %59 = getelementptr inbounds i8, ptr %3, i64 24
  %60 = load ptr, ptr %59, align 8
  %61 = getelementptr inbounds i8, ptr %3, i64 32
  %62 = load ptr, ptr %61, align 8
  %.not4.i.i.i.i.i = icmp eq ptr %60, %62
  br i1 %.not4.i.i.i.i.i, label %_ZSt8_DestroyIPN23cmUVProcessChainBuilder20ProcessConfigurationES1_EvT_S3_RSaIT0_E.exit.i.i, label %.lr.ph.i.i.i.i.i

.lr.ph.i.i.i.i.i:                                 ; preds = %57, %_ZSt8_DestroyIN23cmUVProcessChainBuilder20ProcessConfigurationEEvPT_.exit.i.i.i.i.i
  %.05.i.i.i.i.i = phi ptr [ %69, %_ZSt8_DestroyIN23cmUVProcessChainBuilder20ProcessConfigurationEEvPT_.exit.i.i.i.i.i ], [ %60, %57 ]
  %63 = load ptr, ptr %.05.i.i.i.i.i, align 8
  %64 = getelementptr inbounds i8, ptr %.05.i.i.i.i.i, i64 8
  %65 = load ptr, ptr %64, align 8
  %.not4.i.i.i.i.i.i.i.i.i.i.i = icmp eq ptr %63, %65
  br i1 %.not4.i.i.i.i.i.i.i.i.i.i.i, label %_ZSt8_DestroyIPNSt7__cxx1112basic_stringIcSt11char_traitsIcESaIcEEES5_EvT_S7_RSaIT0_E.exit.i.i.i.i.i.i.i.i, label %.lr.ph.i.i.i.i.i.i.i.i.i.i.i

.lr.ph.i.i.i.i.i.i.i.i.i.i.i:                     ; preds = %.lr.ph.i.i.i.i.i, %.lr.ph.i.i.i.i.i.i.i.i.i.i.i
  %.05.i.i.i.i.i.i.i.i.i.i.i = phi ptr [ %66, %.lr.ph.i.i.i.i.i.i.i.i.i.i.i ], [ %63, %.lr.ph.i.i.i.i.i ]
  call void @_ZNSt7__cxx1112basic_stringIcSt11char_traitsIcESaIcEED1Ev(ptr noundef nonnull align 8 dereferenceable(32) %.05.i.i.i.i.i.i.i.i.i.i.i) #21
  %66 = getelementptr inbounds i8, ptr %.05.i.i.i.i.i.i.i.i.i.i.i, i64 32
  %.not.i.i.i.i.i.i.i.i.i.i.i = icmp eq ptr %66, %65
  br i1 %.not.i.i.i.i.i.i.i.i.i.i.i, label %_ZSt8_DestroyIPNSt7__cxx1112basic_stringIcSt11char_traitsIcESaIcEEES5_EvT_S7_RSaIT0_E.exitthread-pre-split.i.i.i.i.i.i.i.i, label %.lr.ph.i.i.i.i.i.i.i.i.i.i.i, !llvm.loop !12

_ZSt8_DestroyIPNSt7__cxx1112basic_stringIcSt11char_traitsIcESaIcEEES5_EvT_S7_RSaIT0_E.exitthread-pre-split.i.i.i.i.i.i.i.i: ; preds = %.lr.ph.i.i.i.i.i.i.i.i.i.i.i
  %.pr.i.i.i.i.i.i.i.i = load ptr, ptr %.05.i.i.i.i.i, align 8
  br label %_ZSt8_DestroyIPNSt7__cxx1112basic_stringIcSt11char_traitsIcESaIcEEES5_EvT_S7_RSaIT0_E.exit.i.i.i.i.i.i.i.i

_ZSt8_DestroyIPNSt7__cxx1112basic_stringIcSt11char_traitsIcESaIcEEES5_EvT_S7_RSaIT0_E.exit.i.i.i.i.i.i.i.i: ; preds = %_ZSt8_DestroyIPNSt7__cxx1112basic_stringIcSt11char_traitsIcESaIcEEES5_EvT_S7_RSaIT0_E.exitthread-pre-split.i.i.i.i.i.i.i.i, %.lr.ph.i.i.i.i.i
  %67 = phi ptr [ %.pr.i.i.i.i.i.i.i.i, %_ZSt8_DestroyIPNSt7__cxx1112basic_stringIcSt11char_traitsIcESaIcEEES5_EvT_S7_RSaIT0_E.exitthread-pre-split.i.i.i.i.i.i.i.i ], [ %63, %.lr.ph.i.i.i.i.i ]
  %.not.i.i.i.i.i.i.i.i.i.i = icmp eq ptr %67, null
  br i1 %.not.i.i.i.i.i.i.i.i.i.i, label %_ZSt8_DestroyIN23cmUVProcessChainBuilder20ProcessConfigurationEEvPT_.exit.i.i.i.i.i, label %68

68:                                               ; preds = %_ZSt8_DestroyIPNSt7__cxx1112basic_stringIcSt11char_traitsIcESaIcEEES5_EvT_S7_RSaIT0_E.exit.i.i.i.i.i.i.i.i
  call void @_ZdlPv(ptr noundef nonnull %67) #25
  br label %_ZSt8_DestroyIN23cmUVProcessChainBuilder20ProcessConfigurationEEvPT_.exit.i.i.i.i.i

_ZSt8_DestroyIN23cmUVProcessChainBuilder20ProcessConfigurationEEvPT_.exit.i.i.i.i.i: ; preds = %68, %_ZSt8_DestroyIPNSt7__cxx1112basic_stringIcSt11char_traitsIcESaIcEEES5_EvT_S7_RSaIT0_E.exit.i.i.i.i.i.i.i.i
  %69 = getelementptr inbounds i8, ptr %.05.i.i.i.i.i, i64 24
  %.not.i.i.i.i.i = icmp eq ptr %69, %62
  br i1 %.not.i.i.i.i.i, label %_ZSt8_DestroyIPN23cmUVProcessChainBuilder20ProcessConfigurationES1_EvT_S3_RSaIT0_E.exitthread-pre-split.i.i, label %.lr.ph.i.i.i.i.i, !llvm.loop !116

_ZSt8_DestroyIPN23cmUVProcessChainBuilder20ProcessConfigurationES1_EvT_S3_RSaIT0_E.exitthread-pre-split.i.i: ; preds = %_ZSt8_DestroyIN23cmUVProcessChainBuilder20ProcessConfigurationEEvPT_.exit.i.i.i.i.i
  %.pr.i.i = load ptr, ptr %59, align 8
  br label %_ZSt8_DestroyIPN23cmUVProcessChainBuilder20ProcessConfigurationES1_EvT_S3_RSaIT0_E.exit.i.i

_ZSt8_DestroyIPN23cmUVProcessChainBuilder20ProcessConfigurationES1_EvT_S3_RSaIT0_E.exit.i.i: ; preds = %_ZSt8_DestroyIPN23cmUVProcessChainBuilder20ProcessConfigurationES1_EvT_S3_RSaIT0_E.exitthread-pre-split.i.i, %57
  %70 = phi ptr [ %.pr.i.i, %_ZSt8_DestroyIPN23cmUVProcessChainBuilder20ProcessConfigurationES1_EvT_S3_RSaIT0_E.exitthread-pre-split.i.i ], [ %60, %57 ]
  %.not.i.i.i.i = icmp eq ptr %70, null
  br i1 %.not.i.i.i.i, label %_ZN23cmUVProcessChainBuilderD2Ev.exit, label %71

71:                                               ; preds = %_ZSt8_DestroyIPN23cmUVProcessChainBuilder20ProcessConfigurationES1_EvT_S3_RSaIT0_E.exit.i.i
  call void @_ZdlPv(ptr noundef nonnull %70) #25
  br label %_ZN23cmUVProcessChainBuilderD2Ev.exit

_ZN23cmUVProcessChainBuilderD2Ev.exit:            ; preds = %_ZSt8_DestroyIPN23cmUVProcessChainBuilder20ProcessConfigurationES1_EvT_S3_RSaIT0_E.exit.i.i, %71
  ret i32 %.07

72:                                               ; preds = %55, %26
  %.pn = phi { ptr, i32 } [ %27, %26 ], [ %56, %55 ]
  call void @_ZN16cmUVProcessChainD1Ev(ptr noundef nonnull align 8 dereferenceable(8) %5) #21
  br label %73

73:                                               ; preds = %72, %24
  %.pn.pn = phi { ptr, i32 } [ %.pn, %72 ], [ %25, %24 ]
  call void @_ZN23cmUVProcessChainBuilderD2Ev(ptr noundef nonnull align 8 dereferenceable(96) %3) #21
  resume { ptr, i32 } %.pn.pn
}